; Function Attrs: nounwind uwtable
define range(i32 0, 2) i32 @ossl_init_thread_start(ptr noundef %0, ptr noundef %1, ptr noundef %2) local_unnamed_addr #0 {
  %4 = tail call ptr @CRYPTO_THREAD_get_local(ptr noundef nonnull @destructor_key) #2
  %5 = icmp eq ptr %4, null
  br i1 %5, label %6, label %init_get_thread_local.exit

6:                                                ; preds = %3
  %7 = tail call noalias ptr @CRYPTO_zalloc(i64 noundef 8, ptr noundef nonnull @.str, i32 noundef 101) #2
  %8 = icmp eq ptr %7, null
  br i1 %8, label %init_get_thread_local.exit.thread, label %9

9:                                                ; preds = %6
  %10 = tail call i32 @CRYPTO_THREAD_set_local(ptr noundef nonnull @destructor_key, ptr noundef nonnull %7) #2
  %.not16.i = icmp eq i32 %10, 0
  br i1 %.not16.i, label %11, label %12

11:                                               ; preds = %9
  tail call void @CRYPTO_free(ptr noundef nonnull %7, ptr noundef nonnull @.str, i32 noundef 105) #2
  br label %init_get_thread_local.exit.thread

12:                                               ; preds = %9
  %13 = tail call i32 @CRYPTO_THREAD_run_once(ptr noundef nonnull @tevent_register_runonce, ptr noundef nonnull @create_global_tevent_register_ossl_) #2
  %14 = icmp eq i32 %13, 0
  %15 = load i32, ptr @create_global_tevent_register_ossl_ret_, align 4
  %16 = icmp eq i32 %15, 0
  %or.cond.i.not.i.i = select i1 %14, i1 true, i1 %16
  %17 = load ptr, ptr @glob_tevent_reg, align 8
  %18 = icmp eq ptr %17, null
  %19 = select i1 %or.cond.i.not.i.i, i1 true, i1 %18
  br i1 %19, label %init_thread_push_handlers.exit.thread.i, label %20

20:                                               ; preds = %12
  %21 = getelementptr inbounds nuw i8, ptr %17, i64 8
  %22 = load ptr, ptr %21, align 8, !tbaa !3
  %23 = tail call i32 @CRYPTO_THREAD_write_lock(ptr noundef %22) #2
  %.not.i.i = icmp eq i32 %23, 0
  br i1 %.not.i.i, label %init_thread_push_handlers.exit.thread.i, label %init_thread_push_handlers.exit.i

init_thread_push_handlers.exit.i:                 ; preds = %20
  %24 = load ptr, ptr %17, align 8, !tbaa !20
  %25 = tail call i32 @OPENSSL_sk_push(ptr noundef %24, ptr noundef nonnull %7) #2
  %.not3.i = icmp eq i32 %25, 0
  %26 = load ptr, ptr %21, align 8, !tbaa !3
  %27 = tail call i32 @CRYPTO_THREAD_unlock(ptr noundef %26) #2
  br i1 %.not3.i, label %init_thread_push_handlers.exit.thread.i, label %init_get_thread_local.exit

init_thread_push_handlers.exit.thread.i:          ; preds = %init_thread_push_handlers.exit.i, %20, %12
  %28 = tail call i32 @CRYPTO_THREAD_set_local(ptr noundef nonnull @destructor_key, ptr noundef null) #2
  tail call void @CRYPTO_free(ptr noundef nonnull %7, ptr noundef nonnull @.str, i32 noundef 112) #2
  br label %init_get_thread_local.exit.thread

init_get_thread_local.exit:                       ; preds = %init_thread_push_handlers.exit.i, %3
  %.012.i = phi ptr [ %7, %init_thread_push_handlers.exit.i ], [ %4, %3 ]
  %29 = tail call noalias ptr @CRYPTO_malloc(i64 noundef 32, ptr noundef nonnull @.str, i32 noundef 408) #2
  %30 = icmp eq ptr %29, null
  br i1 %30, label %init_get_thread_local.exit.thread, label %31

31:                                               ; preds = %init_get_thread_local.exit
  %32 = getelementptr inbounds nuw i8, ptr %29, i64 16
  store ptr %2, ptr %32, align 8, !tbaa !11
  %33 = getelementptr inbounds nuw i8, ptr %29, i64 8
  store ptr %1, ptr %33, align 8, !tbaa !13
  store ptr %0, ptr %29, align 8, !tbaa !21
  %34 = load ptr, ptr %.012.i, align 8, !tbaa !9
  %35 = getelementptr inbounds nuw i8, ptr %29, i64 24
  store ptr %34, ptr %35, align 8, !tbaa !14
  store ptr %29, ptr %.012.i, align 8, !tbaa !9
  br label %init_get_thread_local.exit.thread

init_get_thread_local.exit.thread:                ; preds = %6, %11, %init_thread_push_handlers.exit.thread.i, %init_get_thread_local.exit, %31
  %.0 = phi i32 [ 1, %31 ], [ 0, %init_get_thread_local.exit ], [ 0, %init_thread_push_handlers.exit.thread.i ], [ 0, %11 ], [ 0, %6 ]
  ret i32 %.0
}